
a.out:     file format elf64-x86-64


Disassembly of section .init:

0000000000400730 <_init>:
  400730:	48 83 ec 08          	sub    $0x8,%rsp
  400734:	e8 f3 00 00 00       	callq  40082c <call_gmon_start>
  400739:	e8 82 01 00 00       	callq  4008c0 <frame_dummy>
  40073e:	e8 7d 03 00 00       	callq  400ac0 <__do_global_ctors_aux>
  400743:	48 83 c4 08          	add    $0x8,%rsp
  400747:	c3                   	retq   

Disassembly of section .plt:

0000000000400750 <_ZNSolsEi@plt-0x10>:
  400750:	ff 35 9a 08 20 00    	pushq  0x20089a(%rip)        # 600ff0 <_GLOBAL_OFFSET_TABLE_+0x8>
  400756:	ff 25 9c 08 20 00    	jmpq   *0x20089c(%rip)        # 600ff8 <_GLOBAL_OFFSET_TABLE_+0x10>
  40075c:	0f 1f 40 00          	nopl   0x0(%rax)

0000000000400760 <_ZNSolsEi@plt>:
  400760:	ff 25 9a 08 20 00    	jmpq   *0x20089a(%rip)        # 601000 <_GLOBAL_OFFSET_TABLE_+0x18>
  400766:	68 00 00 00 00       	pushq  $0x0
  40076b:	e9 e0 ff ff ff       	jmpq   400750 <_init+0x20>

0000000000400770 <_ZNSt8ios_base4InitC1Ev@plt>:
  400770:	ff 25 92 08 20 00    	jmpq   *0x200892(%rip)        # 601008 <_GLOBAL_OFFSET_TABLE_+0x20>
  400776:	68 01 00 00 00       	pushq  $0x1
  40077b:	e9 d0 ff ff ff       	jmpq   400750 <_init+0x20>

0000000000400780 <__libc_start_main@plt>:
  400780:	ff 25 8a 08 20 00    	jmpq   *0x20088a(%rip)        # 601010 <_GLOBAL_OFFSET_TABLE_+0x28>
  400786:	68 02 00 00 00       	pushq  $0x2
  40078b:	e9 c0 ff ff ff       	jmpq   400750 <_init+0x20>

0000000000400790 <__cxa_atexit@plt>:
  400790:	ff 25 82 08 20 00    	jmpq   *0x200882(%rip)        # 601018 <_GLOBAL_OFFSET_TABLE_+0x30>
  400796:	68 03 00 00 00       	pushq  $0x3
  40079b:	e9 b0 ff ff ff       	jmpq   400750 <_init+0x20>

00000000004007a0 <_ZNSt8ios_base4InitD1Ev@plt>:
  4007a0:	ff 25 7a 08 20 00    	jmpq   *0x20087a(%rip)        # 601020 <_GLOBAL_OFFSET_TABLE_+0x38>
  4007a6:	68 04 00 00 00       	pushq  $0x4
  4007ab:	e9 a0 ff ff ff       	jmpq   400750 <_init+0x20>

00000000004007b0 <_ZStlsISt11char_traitsIcEERSt13basic_ostreamIcT_ES5_PKc@plt>:
  4007b0:	ff 25 72 08 20 00    	jmpq   *0x200872(%rip)        # 601028 <_GLOBAL_OFFSET_TABLE_+0x40>
  4007b6:	68 05 00 00 00       	pushq  $0x5
  4007bb:	e9 90 ff ff ff       	jmpq   400750 <_init+0x20>

00000000004007c0 <_ZNSolsEPKv@plt>:
  4007c0:	ff 25 6a 08 20 00    	jmpq   *0x20086a(%rip)        # 601030 <_GLOBAL_OFFSET_TABLE_+0x48>
  4007c6:	68 06 00 00 00       	pushq  $0x6
  4007cb:	e9 80 ff ff ff       	jmpq   400750 <_init+0x20>

00000000004007d0 <_ZNSolsEPFRSoS_E@plt>:
  4007d0:	ff 25 62 08 20 00    	jmpq   *0x200862(%rip)        # 601038 <_GLOBAL_OFFSET_TABLE_+0x50>
  4007d6:	68 07 00 00 00       	pushq  $0x7
  4007db:	e9 70 ff ff ff       	jmpq   400750 <_init+0x20>

00000000004007e0 <_ZSt4endlIcSt11char_traitsIcEERSt13basic_ostreamIT_T0_ES6_@plt>:
  4007e0:	ff 25 5a 08 20 00    	jmpq   *0x20085a(%rip)        # 601040 <_GLOBAL_OFFSET_TABLE_+0x58>
  4007e6:	68 08 00 00 00       	pushq  $0x8
  4007eb:	e9 60 ff ff ff       	jmpq   400750 <_init+0x20>

00000000004007f0 <__gxx_personality_v0@plt>:
  4007f0:	ff 25 52 08 20 00    	jmpq   *0x200852(%rip)        # 601048 <_GLOBAL_OFFSET_TABLE_+0x60>
  4007f6:	68 09 00 00 00       	pushq  $0x9
  4007fb:	e9 50 ff ff ff       	jmpq   400750 <_init+0x20>

Disassembly of section .text:

0000000000400800 <_start>:
  400800:	31 ed                	xor    %ebp,%ebp
  400802:	49 89 d1             	mov    %rdx,%r9
  400805:	5e                   	pop    %rsi
  400806:	48 89 e2             	mov    %rsp,%rdx
  400809:	48 83 e4 f0          	and    $0xfffffffffffffff0,%rsp
  40080d:	50                   	push   %rax
  40080e:	54                   	push   %rsp
  40080f:	49 c7 c0 b0 0a 40 00 	mov    $0x400ab0,%r8
  400816:	48 c7 c1 20 0a 40 00 	mov    $0x400a20,%rcx
  40081d:	48 c7 c7 e4 08 40 00 	mov    $0x4008e4,%rdi
  400824:	e8 57 ff ff ff       	callq  400780 <__libc_start_main@plt>
  400829:	f4                   	hlt    
  40082a:	90                   	nop
  40082b:	90                   	nop

000000000040082c <call_gmon_start>:
  40082c:	48 83 ec 08          	sub    $0x8,%rsp
  400830:	48 8b 05 a9 07 20 00 	mov    0x2007a9(%rip),%rax        # 600fe0 <_DYNAMIC+0x1e0>
  400837:	48 85 c0             	test   %rax,%rax
  40083a:	74 02                	je     40083e <call_gmon_start+0x12>
  40083c:	ff d0                	callq  *%rax
  40083e:	48 83 c4 08          	add    $0x8,%rsp
  400842:	c3                   	retq   
  400843:	90                   	nop
  400844:	90                   	nop
  400845:	90                   	nop
  400846:	90                   	nop
  400847:	90                   	nop
  400848:	90                   	nop
  400849:	90                   	nop
  40084a:	90                   	nop
  40084b:	90                   	nop
  40084c:	90                   	nop
  40084d:	90                   	nop
  40084e:	90                   	nop
  40084f:	90                   	nop

0000000000400850 <__do_global_dtors_aux>:
  400850:	55                   	push   %rbp
  400851:	48 89 e5             	mov    %rsp,%rbp
  400854:	53                   	push   %rbx
  400855:	48 83 ec 08          	sub    $0x8,%rsp
  400859:	80 3d 10 09 20 00 00 	cmpb   $0x0,0x200910(%rip)        # 601170 <completed.7467>
  400860:	75 4b                	jne    4008ad <__do_global_dtors_aux+0x5d>
  400862:	bb f0 0d 60 00       	mov    $0x600df0,%ebx
  400867:	48 8b 05 0a 09 20 00 	mov    0x20090a(%rip),%rax        # 601178 <dtor_idx.7469>
  40086e:	48 81 eb e8 0d 60 00 	sub    $0x600de8,%rbx
  400875:	48 c1 fb 03          	sar    $0x3,%rbx
  400879:	48 83 eb 01          	sub    $0x1,%rbx
  40087d:	48 39 d8             	cmp    %rbx,%rax
  400880:	73 24                	jae    4008a6 <__do_global_dtors_aux+0x56>
  400882:	66 0f 1f 44 00 00    	nopw   0x0(%rax,%rax,1)
  400888:	48 83 c0 01          	add    $0x1,%rax
  40088c:	48 89 05 e5 08 20 00 	mov    %rax,0x2008e5(%rip)        # 601178 <dtor_idx.7469>
  400893:	ff 14 c5 e8 0d 60 00 	callq  *0x600de8(,%rax,8)
  40089a:	48 8b 05 d7 08 20 00 	mov    0x2008d7(%rip),%rax        # 601178 <dtor_idx.7469>
  4008a1:	48 39 d8             	cmp    %rbx,%rax
  4008a4:	72 e2                	jb     400888 <__do_global_dtors_aux+0x38>
  4008a6:	c6 05 c3 08 20 00 01 	movb   $0x1,0x2008c3(%rip)        # 601170 <completed.7467>
  4008ad:	48 83 c4 08          	add    $0x8,%rsp
  4008b1:	5b                   	pop    %rbx
  4008b2:	c9                   	leaveq 
  4008b3:	c3                   	retq   
  4008b4:	66 66 66 2e 0f 1f 84 	data32 data32 nopw %cs:0x0(%rax,%rax,1)
  4008bb:	00 00 00 00 00 

00000000004008c0 <frame_dummy>:
  4008c0:	55                   	push   %rbp
  4008c1:	48 83 3d 2f 05 20 00 	cmpq   $0x0,0x20052f(%rip)        # 600df8 <__JCR_END__>
  4008c8:	00 
  4008c9:	48 89 e5             	mov    %rsp,%rbp
  4008cc:	74 12                	je     4008e0 <frame_dummy+0x20>
  4008ce:	b8 00 00 00 00       	mov    $0x0,%eax
  4008d3:	48 85 c0             	test   %rax,%rax
  4008d6:	74 08                	je     4008e0 <frame_dummy+0x20>
  4008d8:	bf f8 0d 60 00       	mov    $0x600df8,%edi
  4008dd:	c9                   	leaveq 
  4008de:	ff e0                	jmpq   *%rax
  4008e0:	c9                   	leaveq 
  4008e1:	c3                   	retq   
  4008e2:	90                   	nop
  4008e3:	90                   	nop

00000000004008e4 <main>:
  4008e4:	55                   	push   %rbp
  4008e5:	48 89 e5             	mov    %rsp,%rbp
  4008e8:	53                   	push   %rbx
  4008e9:	48 83 ec 18          	sub    $0x18,%rsp
  4008ed:	c7 45 ec 01 00 00 00 	movl   $0x1,-0x14(%rbp)
  4008f4:	48 8d 45 ec          	lea    -0x14(%rbp),%rax
  4008f8:	48 89 45 e0          	mov    %rax,-0x20(%rbp)
  4008fc:	48 8b 45 e0          	mov    -0x20(%rbp),%rax
  400900:	c7 00 02 00 00 00    	movl   $0x2,(%rax)
  400906:	be 0c 0b 40 00       	mov    $0x400b0c,%esi
  40090b:	bf 60 10 60 00       	mov    $0x601060,%edi
  400910:	e8 9b fe ff ff       	callq  4007b0 <_ZStlsISt11char_traitsIcEERSt13basic_ostreamIcT_ES5_PKc@plt>
  400915:	be 01 00 00 00       	mov    $0x1,%esi
  40091a:	48 89 c7             	mov    %rax,%rdi
  40091d:	e8 3e fe ff ff       	callq  400760 <_ZNSolsEi@plt>
  400922:	be e0 07 40 00       	mov    $0x4007e0,%esi
  400927:	48 89 c7             	mov    %rax,%rdi
  40092a:	e8 a1 fe ff ff       	callq  4007d0 <_ZNSolsEPFRSoS_E@plt>
  40092f:	48 8b 45 e0          	mov    -0x20(%rbp),%rax
  400933:	8b 18                	mov    (%rax),%ebx
  400935:	be 15 0b 40 00       	mov    $0x400b15,%esi
  40093a:	bf 60 10 60 00       	mov    $0x601060,%edi
  40093f:	e8 6c fe ff ff       	callq  4007b0 <_ZStlsISt11char_traitsIcEERSt13basic_ostreamIcT_ES5_PKc@plt>
  400944:	89 de                	mov    %ebx,%esi
  400946:	48 89 c7             	mov    %rax,%rdi
  400949:	e8 12 fe ff ff       	callq  400760 <_ZNSolsEi@plt>
  40094e:	be e0 07 40 00       	mov    $0x4007e0,%esi
  400953:	48 89 c7             	mov    %rax,%rdi
  400956:	e8 75 fe ff ff       	callq  4007d0 <_ZNSolsEPFRSoS_E@plt>
  40095b:	be 1f 0b 40 00       	mov    $0x400b1f,%esi
  400960:	bf 60 10 60 00       	mov    $0x601060,%edi
  400965:	e8 46 fe ff ff       	callq  4007b0 <_ZStlsISt11char_traitsIcEERSt13basic_ostreamIcT_ES5_PKc@plt>
  40096a:	48 8d 55 ec          	lea    -0x14(%rbp),%rdx
  40096e:	48 89 d6             	mov    %rdx,%rsi
  400971:	48 89 c7             	mov    %rax,%rdi
  400974:	e8 47 fe ff ff       	callq  4007c0 <_ZNSolsEPKv@plt>
  400979:	be e0 07 40 00       	mov    $0x4007e0,%esi
  40097e:	48 89 c7             	mov    %rax,%rdi
  400981:	e8 4a fe ff ff       	callq  4007d0 <_ZNSolsEPFRSoS_E@plt>
  400986:	be 2a 0b 40 00       	mov    $0x400b2a,%esi
  40098b:	bf 60 10 60 00       	mov    $0x601060,%edi
  400990:	e8 1b fe ff ff       	callq  4007b0 <_ZStlsISt11char_traitsIcEERSt13basic_ostreamIcT_ES5_PKc@plt>
  400995:	48 8b 55 e0          	mov    -0x20(%rbp),%rdx
  400999:	48 89 d6             	mov    %rdx,%rsi
  40099c:	48 89 c7             	mov    %rax,%rdi
  40099f:	e8 1c fe ff ff       	callq  4007c0 <_ZNSolsEPKv@plt>
  4009a4:	be e0 07 40 00       	mov    $0x4007e0,%esi
  4009a9:	48 89 c7             	mov    %rax,%rdi
  4009ac:	e8 1f fe ff ff       	callq  4007d0 <_ZNSolsEPFRSoS_E@plt>
  4009b1:	b8 00 00 00 00       	mov    $0x0,%eax
  4009b6:	48 83 c4 18          	add    $0x18,%rsp
  4009ba:	5b                   	pop    %rbx
  4009bb:	c9                   	leaveq 
  4009bc:	c3                   	retq   

00000000004009bd <_Z41__static_initialization_and_destruction_0ii>:
  4009bd:	55                   	push   %rbp
  4009be:	48 89 e5             	mov    %rsp,%rbp
  4009c1:	48 83 ec 10          	sub    $0x10,%rsp
  4009c5:	89 7d fc             	mov    %edi,-0x4(%rbp)
  4009c8:	89 75 f8             	mov    %esi,-0x8(%rbp)
  4009cb:	83 7d fc 01          	cmpl   $0x1,-0x4(%rbp)
  4009cf:	75 2a                	jne    4009fb <_Z41__static_initialization_and_destruction_0ii+0x3e>
  4009d1:	81 7d f8 ff ff 00 00 	cmpl   $0xffff,-0x8(%rbp)
  4009d8:	75 21                	jne    4009fb <_Z41__static_initialization_and_destruction_0ii+0x3e>
  4009da:	bf 80 11 60 00       	mov    $0x601180,%edi
  4009df:	e8 8c fd ff ff       	callq  400770 <_ZNSt8ios_base4InitC1Ev@plt>
  4009e4:	b8 a0 07 40 00       	mov    $0x4007a0,%eax
  4009e9:	ba 58 10 60 00       	mov    $0x601058,%edx
  4009ee:	be 80 11 60 00       	mov    $0x601180,%esi
  4009f3:	48 89 c7             	mov    %rax,%rdi
  4009f6:	e8 95 fd ff ff       	callq  400790 <__cxa_atexit@plt>
  4009fb:	c9                   	leaveq 
  4009fc:	c3                   	retq   

00000000004009fd <_GLOBAL__I_main>:
  4009fd:	55                   	push   %rbp
  4009fe:	48 89 e5             	mov    %rsp,%rbp
  400a01:	be ff ff 00 00       	mov    $0xffff,%esi
  400a06:	bf 01 00 00 00       	mov    $0x1,%edi
  400a0b:	e8 ad ff ff ff       	callq  4009bd <_Z41__static_initialization_and_destruction_0ii>
  400a10:	c9                   	leaveq 
  400a11:	c3                   	retq   
  400a12:	90                   	nop
  400a13:	90                   	nop
  400a14:	90                   	nop
  400a15:	90                   	nop
  400a16:	90                   	nop
  400a17:	90                   	nop
  400a18:	90                   	nop
  400a19:	90                   	nop
  400a1a:	90                   	nop
  400a1b:	90                   	nop
  400a1c:	90                   	nop
  400a1d:	90                   	nop
  400a1e:	90                   	nop
  400a1f:	90                   	nop

0000000000400a20 <__libc_csu_init>:
  400a20:	48 89 6c 24 d8       	mov    %rbp,-0x28(%rsp)
  400a25:	4c 89 64 24 e0       	mov    %r12,-0x20(%rsp)
  400a2a:	48 8d 2d a7 03 20 00 	lea    0x2003a7(%rip),%rbp        # 600dd8 <__init_array_end>
  400a31:	4c 8d 25 98 03 20 00 	lea    0x200398(%rip),%r12        # 600dd0 <__init_array_start>
  400a38:	4c 89 6c 24 e8       	mov    %r13,-0x18(%rsp)
  400a3d:	4c 89 74 24 f0       	mov    %r14,-0x10(%rsp)
  400a42:	4c 89 7c 24 f8       	mov    %r15,-0x8(%rsp)
  400a47:	48 89 5c 24 d0       	mov    %rbx,-0x30(%rsp)
  400a4c:	48 83 ec 38          	sub    $0x38,%rsp
  400a50:	4c 29 e5             	sub    %r12,%rbp
  400a53:	41 89 fd             	mov    %edi,%r13d
  400a56:	49 89 f6             	mov    %rsi,%r14
  400a59:	48 c1 fd 03          	sar    $0x3,%rbp
  400a5d:	49 89 d7             	mov    %rdx,%r15
  400a60:	e8 cb fc ff ff       	callq  400730 <_init>
  400a65:	48 85 ed             	test   %rbp,%rbp
  400a68:	74 1c                	je     400a86 <__libc_csu_init+0x66>
  400a6a:	31 db                	xor    %ebx,%ebx
  400a6c:	0f 1f 40 00          	nopl   0x0(%rax)
  400a70:	4c 89 fa             	mov    %r15,%rdx
  400a73:	4c 89 f6             	mov    %r14,%rsi
  400a76:	44 89 ef             	mov    %r13d,%edi
  400a79:	41 ff 14 dc          	callq  *(%r12,%rbx,8)
  400a7d:	48 83 c3 01          	add    $0x1,%rbx
  400a81:	48 39 eb             	cmp    %rbp,%rbx
  400a84:	75 ea                	jne    400a70 <__libc_csu_init+0x50>
  400a86:	48 8b 5c 24 08       	mov    0x8(%rsp),%rbx
  400a8b:	48 8b 6c 24 10       	mov    0x10(%rsp),%rbp
  400a90:	4c 8b 64 24 18       	mov    0x18(%rsp),%r12
  400a95:	4c 8b 6c 24 20       	mov    0x20(%rsp),%r13
  400a9a:	4c 8b 74 24 28       	mov    0x28(%rsp),%r14
  400a9f:	4c 8b 7c 24 30       	mov    0x30(%rsp),%r15
  400aa4:	48 83 c4 38          	add    $0x38,%rsp
  400aa8:	c3                   	retq   
  400aa9:	0f 1f 80 00 00 00 00 	nopl   0x0(%rax)

0000000000400ab0 <__libc_csu_fini>:
  400ab0:	f3 c3                	repz retq 
  400ab2:	90                   	nop
  400ab3:	90                   	nop
  400ab4:	90                   	nop
  400ab5:	90                   	nop
  400ab6:	90                   	nop
  400ab7:	90                   	nop
  400ab8:	90                   	nop
  400ab9:	90                   	nop
  400aba:	90                   	nop
  400abb:	90                   	nop
  400abc:	90                   	nop
  400abd:	90                   	nop
  400abe:	90                   	nop
  400abf:	90                   	nop

0000000000400ac0 <__do_global_ctors_aux>:
  400ac0:	55                   	push   %rbp
  400ac1:	48 89 e5             	mov    %rsp,%rbp
  400ac4:	53                   	push   %rbx
  400ac5:	48 83 ec 08          	sub    $0x8,%rsp
  400ac9:	48 8b 05 08 03 20 00 	mov    0x200308(%rip),%rax        # 600dd8 <__init_array_end>
  400ad0:	48 83 f8 ff          	cmp    $0xffffffffffffffff,%rax
  400ad4:	74 19                	je     400aef <__do_global_ctors_aux+0x2f>
  400ad6:	bb d8 0d 60 00       	mov    $0x600dd8,%ebx
  400adb:	0f 1f 44 00 00       	nopl   0x0(%rax,%rax,1)
  400ae0:	48 83 eb 08          	sub    $0x8,%rbx
  400ae4:	ff d0                	callq  *%rax
  400ae6:	48 8b 03             	mov    (%rbx),%rax
  400ae9:	48 83 f8 ff          	cmp    $0xffffffffffffffff,%rax
  400aed:	75 f1                	jne    400ae0 <__do_global_ctors_aux+0x20>
  400aef:	48 83 c4 08          	add    $0x8,%rsp
  400af3:	5b                   	pop    %rbx
  400af4:	c9                   	leaveq 
  400af5:	c3                   	retq   
  400af6:	90                   	nop
  400af7:	90                   	nop

Disassembly of section .fini:

0000000000400af8 <_fini>:
  400af8:	48 83 ec 08          	sub    $0x8,%rsp
  400afc:	e8 4f fd ff ff       	callq  400850 <__do_global_dtors_aux>
  400b01:	48 83 c4 08          	add    $0x8,%rsp
  400b05:	c3                   	retq   
